(dp0
S'II-T'
p1
cvplants.statistic.graph.distribution.marginal.discrete._graph
DAGD
p2
(cvplants.statistic.graph._graph
DAG
p3
((lp4
(I11
(ttp5
a(I8
(ttp6
a(I7
(ttp7
a(I6
(ttp8
a(I10
(ttp9
a(I3
(ttp10
a(I9
(ttp11
a(I5
(ttp12
a(I4
(ttp13
a(I12
(I9
tp14
tp15
a(I2
(ttp16
a(I1
(ttp17
a(I0
(ttp18
aI01
tp19
Rp20
(lp21
cvplants.statistic.distribution.marginal.univariate.discrete._distribution
BinomialDistribution
p22
(I2
F0.0
I0
tp23
Rp24
acvplants.statistic.distribution.marginal.univariate.discrete._distribution
NegativeBinomialDistribution
p25
(F0.0015081498064762997
F0.2870769862811
I0
tp26
Rp27
ag22
(I2
F0.0
I0
tp28
Rp29
ag22
(I2
F0.0
I0
tp30
Rp31
ag25
(F0.1364897762368075
F0.1888786514624028
I0
tp32
Rp33
ag25
(F0.16507489200136954
F0.5990485689717557
I0
tp34
Rp35
ag25
(F0.12203615367416222
F0.18143997229734732
I0
tp36
Rp37
ag25
(F0.2023961723302553
F0.3589734137100066
I0
tp38
Rp39
ag25
(F0.20668826250328867
F0.30542398155140393
I0
tp40
Rp41
acvplants.statistic.regression.univariate.discrete._regression
PoissonRegression
p42
(cvplants.statistic.distribution.marginal.univariate.discrete._distribution
PoissonDistribution
p43
(F0.01533763615714268
I0
tp44
Rp45
(lp46
cvplants.statistic
_tuple2enum
p47
(S'Domain'
p48
I0
tp49
Rp50
a(dp51
(lp52
F-4.177445591583195
aF0.4358993410935259
acvplants.statistic.regression.univariate._regression
LogLink
p53
(tRp54
tp55
Rp56
ag22
(I2
F0.0
I0
tp57
Rp58
ag22
(I2
F0.0
I0
tp59
Rp60
ag22
(I2
F0.0
I0
tp61
Rp62
atp63
Rp64
sS'II-V'
p65
g2
(g3
((lp66
(I11
(ttp67
a(I9
(ttp68
a(I12
(ttp69
a(I10
(ttp70
a(I6
(ttp71
a(I5
(I11
tp72
tp73
a(I2
(ttp74
a(I3
(ttp75
a(I7
(I2
I3
I5
I11
tp76
tp77
a(I4
(I12
tp78
tp79
a(I1
(ttp80
a(I8
(I1
I2
I3
I7
I9
I10
I11
tp81
tp82
a(I0
(ttp83
aI01
tp84
Rp85
(lp86
g43
(F0.1636568848758465
I0
tp87
Rp88
ag25
(F0.1141231638096388
F0.673579504732426
I0
tp89
Rp90
ag43
(F0.001128668171557562
I0
tp91
Rp92
ag25
(F0.02059757097759664
F0.2931664216448544
I0
tp93
Rp94
ag22
(I2
F0.0
I0
tp95
Rp96
ag42
(g43
(F0.013831104713702238
I0
tp97
Rp98
(lp99
g50
a(dp100
(lp101
F-4.280835258425977
aF1.2027256282084267
ag53
(tRp102
tp103
Rp104
ag25
(F0.09390205953038339
F0.28375856837180036
I0
tp105
Rp106
ag25
(F0.06404566999105075
F0.24698947134536975
I0
tp107
Rp108
ag42
(g43
(F0.647050261651087
I0
tp109
Rp110
(lp111
g50
ag50
ag50
ag50
a(dp112
(lp113
F-0.43533130333916376
aF-9.617632865982795
aF-9.267401281319145
aF-1.0430855193279398
aF0.46176169307473464
ag53
(tRp114
tp115
Rp116
ag42
(g43
(F0.012429378884422975
I0
tp117
Rp118
(lp119
g50
a(dp120
(lp121
F-4.387692343780984
aF5.080839524340928
ag53
(tRp122
tp123
Rp124
ag25
(F0.12140578941902863
F0.3820266267849818
I0
tp125
Rp126
ag42
(g43
(F2.9734555977214485e-31
I0
tp127
Rp128
(lp129
g50
ag50
ag50
ag50
ag50
ag50
ag50
a(dp130
(lp131
F0.43252133634896467
aF-10.103276348825156
aF-0.3408645927307646
aF-9.982271259563321
aF-3.4910070377168334
aF-1.3192500440898878
aF-1.0260223462013296
aF-1.0984766796546657
ag53
(tRp132
tp133
Rp134
ag22
(I2
F0.0
I0
tp135
Rp136
atp137
Rp138
sS'IL-T'
p139
g2
(g3
((lp140
(I11
(ttp141
a(I9
(ttp142
a(I8
(ttp143
a(I7
(ttp144
a(I6
(ttp145
a(I4
(ttp146
a(I5
(I4
I9
tp147
tp148
a(I3
(I4
tp149
tp150
a(I10
(ttp151
a(I12
(ttp152
a(I2
(ttp153
a(I1
(ttp154
a(I0
(ttp155
aI01
tp156
Rp157
(lp158
g22
(I2
F0.0
I0
tp159
Rp160
ag25
(F1.23799473443959
F0.3323938720603262
I0
tp161
Rp162
ag22
(I2
F0.0
I0
tp163
Rp164
ag22
(I2
F0.0
I0
tp165
Rp166
ag22
(I2
F0.0
I0
tp167
Rp168
ag25
(F0.29048387955588933
F0.45772305777217137
I0
tp169
Rp170
ag42
(g43
(F7.005248382570844e-40
I0
tp171
Rp172
(lp173
g50
ag50
a(dp174
(lp175
F-1.3168658593825286
aF-11.266937064084912
aF-9.971318774727223
ag53
(tRp176
tp177
Rp178
ag42
(g43
(F0.6299891602439651
I0
tp179
Rp180
(lp181
g50
a(dp182
(lp183
F-3.085372110141589
aF0.374759920633578
ag53
(tRp184
tp185
Rp186
ag25
(F0.04067950495576123
F0.16292101030126238
I0
tp187
Rp188
ag25
(F0.10248328553099476
F0.42804774164271575
I0
tp189
Rp190
ag22
(I2
F0.0
I0
tp191
Rp192
ag22
(I2
F0.0
I0
tp193
Rp194
ag22
(I2
F0.0
I0
tp195
Rp196
atp197
Rp198
sS'IL-V'
p199
g2
(g3
((lp200
(I11
(ttp201
a(I10
(ttp202
a(I7
(ttp203
a(I6
(ttp204
a(I2
(ttp205
a(I8
(ttp206
a(I4
(ttp207
a(I5
(ttp208
a(I3
(ttp209
a(I9
(I3
I5
tp210
tp211
a(I12
(I9
tp212
tp213
a(I1
(ttp214
a(I0
(ttp215
aI01
tp216
Rp217
(lp218
g22
(I2
F0.0
I0
tp219
Rp220
ag22
(I2
F0.0
I0
tp221
Rp222
ag22
(I2
F0.0
I0
tp223
Rp224
ag22
(I2
F0.0
I0
tp225
Rp226
ag43
(F0.014598540145985401
I0
tp227
Rp228
ag25
(F0.005943000657475374
F0.28931620633220045
I0
tp229
Rp230
ag25
(F0.11316757295824312
F0.4133952396152011
I0
tp231
Rp232
ag25
(F0.040854399967553835
F0.4826271721122295
I0
tp233
Rp234
ag25
(F0.31265111177920285
F0.43781866790361057
I0
tp235
Rp236
ag42
(g43
(F1.005179078004441
I0
tp237
Rp238
(lp239
g50
ag50
a(dp240
(lp241
F0.005165712706704452
aF-1.3325749596216234
aF-8.95911294437779
ag53
(tRp242
tp243
Rp244
ag42
(g43
(F0.05688213380922353
I0
tp245
Rp246
(lp247
g50
a(dp248
(lp249
F-2.8667739799639373
aF0.596974653610717
ag53
(tRp250
tp251
Rp252
ag22
(I2
F0.0
I0
tp253
Rp254
ag22
(I2
F0.0
I0
tp255
Rp256
atp257
Rp258
sS'DI-L'
p259
g2
(g3
((lp260
(I12
(ttp261
a(I11
(ttp262
a(I10
(ttp263
a(I9
(ttp264
a(I8
(ttp265
a(I7
(ttp266
a(I6
(ttp267
a(I5
(ttp268
a(I4
(ttp269
a(I3
(ttp270
a(I2
(ttp271
a(I1
(ttp272
a(I0
(ttp273
aI01
tp274
Rp275
(lp276
g22
(I2
F0.0
I0
tp277
Rp278
ag43
(F0.5
I0
tp279
Rp280
ag22
(I2
F0.0
I0
tp281
Rp282
ag22
(I2
F0.0
I0
tp283
Rp284
ag22
(I2
F0.0
I0
tp285
Rp286
ag22
(I2
F0.0
I0
tp287
Rp288
ag22
(I2
F0.0
I0
tp289
Rp290
ag22
(I2
F0.0
I0
tp291
Rp292
ag22
(I2
F0.0
I0
tp293
Rp294
ag22
(I2
F0.0
I0
tp295
Rp296
ag22
(I2
F0.0
I0
tp297
Rp298
ag22
(I2
F0.0
I0
tp299
Rp300
ag22
(I2
F0.0
I0
tp301
Rp302
atp303
Rp304
sS'DE-V'
p305
g2
(g3
((lp306
(I12
(ttp307
a(I11
(ttp308
a(I10
(ttp309
a(I9
(ttp310
a(I7
(ttp311
a(I6
(ttp312
a(I3
(ttp313
a(I2
(ttp314
a(I1
(I2
I7
I11
tp315
tp316
a(I5
(I1
I10
tp317
tp318
a(I8
(I1
I7
I11
tp319
tp320
a(I4
(ttp321
a(I0
(ttp322
aI01
tp323
Rp324
(lp325
g22
(I2
F0.0
I0
tp326
Rp327
ag25
(F0.13785612069778067
F0.5378125372295943
I0
tp328
Rp329
ag25
(F0.026799566263888595
F0.6180700969334003
I0
tp330
Rp331
ag25
(F0.022057960451457692
F0.5906602163357945
I0
tp332
Rp333
ag25
(F0.2792069185430483
F0.4157564761775411
I0
tp334
Rp335
ag22
(I2
F0.0
I0
tp336
Rp337
ag25
(F0.0034157234538508114
F0.47195583036408206
I0
tp338
Rp339
ag25
(F0.07783222764374943
F0.5173512182031603
I0
tp340
Rp341
ag42
(g43
(F1.1234874820755785
I0
tp342
Rp343
(lp344
g50
ag50
ag50
a(dp345
(lp346
F0.11643767068137875
aF-2.7556880905828205
aF-0.4723740717575954
aF-0.5323601857781357
ag53
(tRp347
tp348
Rp349
ag42
(g43
(F1.318347472266398e-05
I0
tp350
Rp351
(lp352
g50
ag50
a(dp353
(lp354
F-3.6163065188680106
aF-1.0886057012505446
aF1.7029141615026944
ag53
(tRp355
tp356
Rp357
ag42
(g43
(F9.39200942111269e-11
I0
tp358
Rp359
(lp360
g50
ag50
ag50
a(dp361
(lp362
F-0.909920909255711
aF-3.168379406784832
aF-11.082104791004603
aF-10.944403191496592
ag53
(tRp363
tp364
Rp365
ag43
(F0.006369426751592357
I0
tp366
Rp367
ag22
(I2
F0.0
I0
tp368
Rp369
atp370
Rp371
sS'U-F'
p372
g2
(g3
((lp373
(I12
(ttp374
a(I11
(ttp375
a(I8
(ttp376
a(I7
(ttp377
a(I4
(ttp378
a(I3
(ttp379
a(I9
(ttp380
a(I5
(ttp381
a(I6
(ttp382
a(I10
(I9
tp383
tp384
a(I2
(ttp385
a(I1
(ttp386
a(I0
(ttp387
aI01
tp388
Rp389
(lp390
g22
(I2
F0.0
I0
tp391
Rp392
ag22
(I2
F0.0
I0
tp393
Rp394
ag22
(I2
F0.0
I0
tp395
Rp396
ag22
(I2
F0.0
I0
tp397
Rp398
ag25
(F0.7766066963775813
F0.48119630107305666
I0
tp399
Rp400
ag25
(F0.2798690507532169
F0.5321708057188081
I0
tp401
Rp402
ag25
(F0.3439852343843027
F0.5328374663067033
I0
tp403
Rp404
ag25
(F0.02404103069008136
F0.43094276056590997
I0
tp405
Rp406
ag25
(F0.0032092780228868373
F0.2879364483203394
I0
tp407
Rp408
ag42
(g43
(F0.007800430711009533
I0
tp409
Rp410
(lp411
g50
a(dp412
(lp413
F-4.853576327450927
aF0.9381711788719456
ag53
(tRp414
tp415
Rp416
ag22
(I2
F0.0
I0
tp417
Rp418
ag22
(I2
F0.0
I0
tp419
Rp420
ag22
(I2
F0.0
I0
tp421
Rp422
atp423
Rp424
sS'U-V'
p425
g2
(g3
((lp426
(I12
(ttp427
a(I11
(ttp428
a(I8
(ttp429
a(I7
(ttp430
a(I6
(ttp431
a(I5
(ttp432
a(I4
(ttp433
a(I10
(ttp434
a(I2
(ttp435
a(I1
(ttp436
a(I0
(ttp437
a(I9
(I0
I6
tp438
tp439
a(I3
(I0
I4
I6
tp440
tp441
aI01
tp442
Rp443
(lp444
g43
(F0.002028397565922921
I0
tp445
Rp446
ag22
(I2
F0.0
I0
tp447
Rp448
ag22
(I2
F0.0
I0
tp449
Rp450
ag22
(I2
F0.0
I0
tp451
Rp452
ag25
(F0.3062697461285892
F0.41368414868385606
I0
tp453
Rp454
ag43
(F0.002028397565922921
I0
tp455
Rp456
ag25
(F0.11055049642248141
F0.3573829264350742
I0
tp457
Rp458
ag43
(F0.004056795131845842
I0
tp459
Rp460
ag22
(I2
F0.0
I0
tp461
Rp462
ag22
(I2
F0.0
I0
tp463
Rp464
ag25
(F0.4449698340438502
F0.4683691699860437
I0
tp465
Rp466
ag42
(g43
(F8.603971951147613e-24
I0
tp467
Rp468
(lp469
g50
ag50
a(dp470
(lp471
F-1.4009749357486483
aF-9.796212604994595
aF-2.727780319713499
ag53
(tRp472
tp473
Rp474
ag42
(g43
(F2.3827641852699883e-05
I0
tp475
Rp476
(lp477
g50
ag50
ag50
a(dp478
(lp479
F0.4430631830368199
aF-1.3075949638604467
aF-0.6515652930388526
aF-4.549752592568297
ag53
(tRp480
tp481
Rp482
atp483
Rp484
sS'DI-V'
p485
g2
(g3
((lp486
(I12
(ttp487
a(I11
(ttp488
a(I8
(ttp489
a(I6
(ttp490
a(I4
(ttp491
a(I3
(ttp492
a(I2
(ttp493
a(I7
(I2
I3
I8
I11
tp494
tp495
a(I1
(I2
I3
I7
I8
I11
tp496
tp497
a(I9
(ttp498
a(I10
(ttp499
a(I5
(ttp500
a(I0
(ttp501
aI01
tp502
Rp503
(lp504
g22
(I2
F0.0
I0
tp505
Rp506
ag43
(F0.07551487414187644
I0
tp507
Rp508
ag25
(F0.37905202020033274
F0.5491399837644881
I0
tp509
Rp510
ag22
(I2
F0.0
I0
tp511
Rp512
ag22
(I2
F0.0
I0
tp513
Rp514
ag25
(F0.05895853485069898
F0.4311040170457795
I0
tp515
Rp516
ag25
(F0.12079402843195175
F0.4897343382233972
I0
tp517
Rp518
ag42
(g43
(F0.5624999999202528
I0
tp519
Rp520
(lp521
g50
ag50
ag50
ag50
a(dp522
(lp523
F-0.5753641450453347
aF-10.842457729710533
aF-11.115034714501125
aF-11.238026147405796
aF-1.1110348085901052
ag53
(tRp524
tp525
Rp526
ag42
(g43
(F0.6502249140831303
I0
tp527
Rp528
(lp529
g50
ag50
ag50
ag50
ag50
a(dp530
(lp531
F-0.4304369542777904
aF-10.963471908639058
aF-11.241555607285065
aF-1.40722226921642
aF-11.36680817351392
aF-0.9472540528462459
ag53
(tRp532
tp533
Rp534
ag25
(F0.04602703991575667
F0.46652832206796546
I0
tp535
Rp536
ag25
(F0.03547192031373185
F0.6326714902772501
I0
tp537
Rp538
ag43
(F0.013729977116704805
I0
tp539
Rp540
ag22
(I2
F0.0
I0
tp541
Rp542
atp543
Rp544
sS'DL-V'
p545
g2
(g3
((lp546
(I12
(ttp547
a(I11
(ttp548
a(I10
(ttp549
a(I9
(ttp550
a(I8
(ttp551
a(I7
(ttp552
a(I6
(ttp553
a(I5
(ttp554
a(I4
(ttp555
a(I3
(ttp556
a(I2
(ttp557
a(I1
(ttp558
a(I0
(ttp559
aI01
tp560
Rp561
(lp562
g22
(I2
F0.0
I0
tp563
Rp564
ag22
(I2
F0.0
I0
tp565
Rp566
ag22
(I2
F0.0
I0
tp567
Rp568
ag22
(I2
F0.0
I0
tp569
Rp570
ag22
(I2
F0.0
I0
tp571
Rp572
ag22
(I2
F0.0
I0
tp573
Rp574
ag22
(I2
F0.0
I0
tp575
Rp576
ag22
(I2
F0.0
I0
tp577
Rp578
ag22
(I2
F0.0
I0
tp579
Rp580
ag43
(F0.1111111111111111
I0
tp581
Rp582
ag22
(I2
F0.0
I0
tp583
Rp584
ag22
(I2
F0.0
I0
tp585
Rp586
ag22
(I2
F0.0
I0
tp587
Rp588
atp589
Rp590
sS'DI-T'
p591
g2
(g3
((lp592
(I12
(ttp593
a(I11
(ttp594
a(I8
(ttp595
a(I7
(ttp596
a(I6
(ttp597
a(I3
(ttp598
a(I5
(ttp599
a(I4
(ttp600
a(I9
(I4
tp601
tp602
a(I10
(ttp603
a(I2
(ttp604
a(I1
(ttp605
a(I0
(ttp606
aI01
tp607
Rp608
(lp609
g22
(I2
F0.0
I0
tp610
Rp611
ag22
(I2
F0.0
I0
tp612
Rp613
ag22
(I2
F0.0
I0
tp614
Rp615
ag22
(I2
F0.0
I0
tp616
Rp617
ag22
(I2
F0.0
I0
tp618
Rp619
ag43
(F0.006896551724137931
I0
tp620
Rp621
ag25
(F0.08527643507784803
F0.46899465652428896
I0
tp622
Rp623
ag43
(F0.034482758620689655
I0
tp624
Rp625
ag42
(g43
(F0.04285891205600888
I0
tp626
Rp627
(lp628
g50
a(dp629
(lp630
F-3.149841672926425
aF3.6198453021721613
ag53
(tRp631
tp632
Rp633
ag25
(F0.04164969204816148
F0.43016717810748817
I0
tp634
Rp635
ag22
(I2
F0.0
I0
tp636
Rp637
ag22
(I2
F0.0
I0
tp638
Rp639
ag22
(I2
F0.0
I0
tp640
Rp641
atp642
Rp643
sS'DL-T'
p644
g2
(g3
((lp645
(I12
(ttp646
a(I11
(ttp647
a(I10
(ttp648
a(I9
(ttp649
a(I8
(ttp650
a(I7
(ttp651
a(I6
(ttp652
a(I5
(ttp653
a(I4
(ttp654
a(I3
(ttp655
a(I2
(ttp656
a(I1
(ttp657
a(I0
(ttp658
aI01
tp659
Rp660
(lp661
g22
(I2
F0.0
I0
tp662
Rp663
ag22
(I2
F0.0
I0
tp664
Rp665
ag22
(I2
F0.0
I0
tp666
Rp667
ag22
(I2
F0.0
I0
tp668
Rp669
ag22
(I2
F0.0
I0
tp670
Rp671
ag22
(I2
F0.0
I0
tp672
Rp673
ag22
(I2
F0.0
I0
tp674
Rp675
ag43
(F0.3333333333333333
I0
tp676
Rp677
ag22
(I2
F0.0
I0
tp678
Rp679
ag22
(I2
F0.0
I0
tp680
Rp681
ag22
(I2
F0.0
I0
tp682
Rp683
ag22
(I2
F0.0
I0
tp684
Rp685
ag22
(I2
F0.0
I0
tp686
Rp687
atp688
Rp689
sS'II-L'
p690
g2
(g3
((lp691
(I12
(ttp692
a(I11
(ttp693
a(I10
(ttp694
a(I8
(ttp695
a(I6
(ttp696
a(I5
(ttp697
a(I4
(I5
I10
tp698
tp699
a(I7
(ttp700
a(I3
(ttp701
a(I9
(I4
I5
I7
I10
tp702
tp703
a(I2
(ttp704
a(I1
(ttp705
a(I0
(ttp706
aI01
tp707
Rp708
(lp709
g25
(F0.17932443570574588
F0.6316473720689455
I0
tp710
Rp711
ag22
(I2
F0.0
I0
tp712
Rp713
ag25
(F0.3207909980969863
F0.18039120193017577
I0
tp714
Rp715
ag22
(I2
F0.0
I0
tp716
Rp717
ag22
(I2
F0.0
I0
tp718
Rp719
ag25
(F0.3683821994359219
F0.2692100201155624
I0
tp720
Rp721
ag42
(g43
(F0.05207585731694743
I0
tp722
Rp723
(lp724
g50
ag50
a(dp725
(lp726
F0.3949033878567733
aF-0.6788804195489133
aF-0.634435538512247
ag53
(tRp727
tp728
Rp729
ag25
(F0.005313292386113652
F0.28899853734151393
I0
tp730
Rp731
ag25
(F0.2244858732611586
F0.49528697978757963
I0
tp732
Rp733
ag42
(g43
(F0.009226585854663788
I0
tp734
Rp735
(lp736
g50
ag50
ag50
ag50
a(dp737
(lp738
F0.9619375403050453
aF-0.1502463579708918
aF-1.2522097949639355
aF-3.9809687701521206
aF-0.6387645559147602
ag53
(tRp739
tp740
Rp741
ag22
(I2
F0.0
I0
tp742
Rp743
ag22
(I2
F0.0
I0
tp744
Rp745
ag22
(I2
F0.0
I0
tp746
Rp747
atp748
Rp749
s.