(dp1
S'C'
(dp2
S'I'
(dp3
I1
F0.11618942731277533
sI2
F0.57599118942731276
sI11
F0.1183920704845815
sI12
F0.1894273127753304
ssS'E'
(dp4
I8
F0.37172774869109948
sI9
F0.15357766143106458
sI10
F0.47294938917975565
sI7
F0.0017452006980802793
ssS'L'
(dp5
I3
F0.94383775351014043
sI4
F0.047581903276131043
sI5
F0.0054602184087363496
sI6
F0.0031201248049921998
sssS'F6'
p6
(dp7
S'I'
(dp8
I1
F0.71663019693654262
sI2
F0.0043763676148796497
sI11
F0.012035010940919038
sI12
F0.26695842450765866
ssS'E'
(dp9
I8
F0.075949367088607597
sI9
F0.16455696202531644
sI10
F0.759493670886076
sI7
I0
ssS'L'
(dp10
I3
F0.98989898989898994
sI4
F0.010101010101010102
sI5
I0
sI6
I0
sssS'NC'
p11
(dp12
S'I'
(dp13
I1
F0.63996478873239437
sI2
F0.0061619718309859151
sI11
F0.027728873239436621
sI12
F0.32614436619718312
ssS'E'
(dp14
I8
F0.05859375
sI9
F0.3203125
sI10
F0.62109375
sI7
I0
ssS'L'
(dp15
I3
F0.80377358490566042
sI4
F0.19056603773584907
sI5
F0.0056603773584905656
sI6
I0
sssS'F2'
p16
(dp17
S'I'
(dp18
I1
F0.2890625
sI2
F0.25260416666666669
sI11
F0.2578125
sI12
F0.20052083333333334
ssS'E'
(dp19
I8
F0.018633540372670808
sI9
F0.27329192546583853
sI10
F0.70186335403726707
sI7
F0.0062111801242236021
ssS'L'
(dp20
I3
F0.94786729857819907
sI4
F0.052132701421800945
sI5
I0
sI6
I0
sssS'B14'
p21
(dp22
S'I'
(dp23
I1
F0.58836524300441828
sI2
F0.0073637702503681884
sI11
F0.038291605301914583
sI12
F0.36597938144329895
ssS'E'
(dp24
I8
F0.050847457627118647
sI9
F0.38983050847457629
sI10
F0.55932203389830504
sI7
I0
ssS'L'
(dp25
I3
F0.69277108433734935
sI4
F0.29819277108433734
sI5
F0.0090361445783132526
sI6
I0
sssS'B12'
p26
(dp27
S'I'
(dp28
I1
F0.14540059347181009
sI2
F0.59495548961424327
sI11
F0.081602373887240356
sI12
F0.17804154302670624
ssS'E'
(dp29
I8
F0.31196581196581197
sI9
F0.05128205128205128
sI10
F0.63675213675213671
sI7
I0
ssS'L'
(dp30
I3
F0.90185676392572944
sI4
F0.074270557029177717
sI5
F0.015915119363395226
sI6
F0.0079575596816976128
sssS'B10'
p31
(dp32
S'I'
(dp33
I1
F0.0026385224274406332
sI2
F0.72295514511873349
sI11
F0.080474934036939311
sI12
F0.19393139841688653
ssS'E'
(dp34
I8
F0.7696629213483146
sI9
F0.1797752808988764
sI10
F0.050561797752808987
sI7
I0
ssS'L'
(dp35
I3
F0.99264705882352944
sI4
I0
sI5
F0.0036764705882352941
sI6
F0.0036764705882352941
sss.