((dp1
S'03-12'
p2
I119
sS'03-10'
p3
I134
sS'03-11'
p4
I0
sS'03-07'
p5
I0
sS'03-09'
p6
I0
sS'03-08'
p7
I0
sS'04-04'
p8
I28
sS'04-05'
p9
I6
sS'04-06'
p10
I0
sS'04-01'
p11
I28
sS'04-02'
p12
I90
sS'04-03'
p13
I1
s(dp14
S'04-12'
p15
I1
sS'04-11'
p16
I55
sS'04-10'
p17
I15
sS'04-08'
p18
I73
sS'04-09'
p19
I12
sS'04-06'
p20
I3
sS'04-07'
p21
I0
sS'05-06'
p22
I0
sS'05-05'
p23
I0
sS'05-04'
p24
I0
sS'05-03'
p25
I339
sS'05-02'
p26
I311
sS'05-01'
p27
I70
s(dp28
S'03-12'
p29
I133
sS'03-10'
p30
I6
sg4
I0
sg5
I0
sS'03-06'
p31
I1
sS'03-09'
p32
I29
sg7
I0
sS'04-04'
p33
I0
sS'04-05'
p34
I1
sg10
I0
sS'04-01'
p35
I0
sS'04-02'
p36
I191
sS'04-03'
p37
I5
s(dp38
S'04-12'
p39
I14
sS'04-11'
p40
I61
sS'04-10'
p41
I3
sS'04-08'
p42
I137
sS'04-09'
p43
I3
sg21
I0
sg22
I0
sg23
I0
sg24
I0
sS'05-03'
p44
I265
sS'05-02'
p45
I357
sS'05-01'
p46
I2
s(dp47
S'03-12'
p48
I77
sS'03-10'
p49
I100
sS'03-11'
p50
I71
sS'03-07'
p51
I1
sS'04-04'
p52
I33
sg7
I0
sg10
I0
sS'04-01'
p53
I98
sS'04-02'
p54
I42
sS'04-03'
p55
I15
sS'03-09'
p56
I4
sS'04-05'
p57
I0
s(dp58
g22
I0
sg23
I0
sg24
I0
sS'05-03'
p59
I585
sS'05-02'
p60
I55
sS'05-01'
p61
I13
sS'04-12'
p62
I0
sS'04-11'
p63
I28
sS'04-10'
p64
I13
sS'04-08'
p65
I3
sS'04-09'
p66
I40
sg21
I0
s(dp67
S'03-12'
p68
I206
sS'03-10'
p69
I91
sS'03-11'
p70
I52
sS'03-05'
p71
I3
sg5
I0
sS'03-09'
p72
I31
sg7
I0
sg10
I0
sS'04-01'
p73
I42
sS'04-02'
p74
I10
sS'04-03'
p75
I173
sS'04-04'
p76
I99
sg57
I0
s(dp77
g22
I0
sg23
I0
sg24
I0
sS'05-03'
p78
I57
sS'05-02'
p79
I0
sS'05-01'
p80
I757
sS'04-12'
p81
I291
sS'04-11'
p82
I0
sS'04-10'
p83
I8
sS'04-08'
p84
I9
sS'04-09'
p85
I38
sg21
I0
s(dp86
S'03-12'
p87
I138
sS'03-10'
p88
I50
sS'03-11'
p89
I10
sg5
I0
sS'03-09'
p90
I1
sg7
I0
sg10
I0
sS'04-01'
p91
I32
sS'04-02'
p92
I2
sS'04-03'
p93
I196
sS'04-04'
p94
I2
sg57
I0
s(dp95
g22
I0
sg23
I0
sg24
I0
sS'05-03'
p96
I0
sS'05-02'
p97
I2
sS'05-01'
p98
I623
sS'04-12'
p99
I106
sS'04-11'
p100
I1
sS'04-10'
p101
I10
sS'04-08'
p102
I6
sS'04-09'
p103
I12
sg21
I0
stp104
.