((lp1
I0
aI0
aI0
aI0
aI0
aI1
aI0
aI0
aI0
aI1
aI0
aI2
aI1
aI0
aI0
aI5
aI2
aI3
aI2
aI0
aI0
aI1
aI0
aI0
aI0
aI7
aI4
aI2
aI0
aI0
aI2
aI0
aI7
aI3
aI0
aI1
aI0
aI2
aI3
aI2
aI2
aI1
aI0
aI0
aI6
aI1
aI5
aI0
aI3
aI0
aI1
aI1
aI4
aI3
aI0
aI3
aI0
aI4
aI1
aI0
aI1
aI3
aI0
aI5
aI0
aI1
aI1
aI0
aI4
aI0
aI5
aI0
aI3
aI1
aI4
aI5
aI3
aI3
aI2
aI1
aI4
aI1
aI1
aI1
aI0
aI7
aI1
aI1
aI0
aI1
aI4
aI2
aI4
aI2
aI1
aI1
aI1
aI1
aI1
aI1
aI1
aI2
aI1
aI4
aI1
aI1
aI4
aI1
aI2
aI1
aI1
aI1
aI1
aI1
aI2
aI4
aI1
aI1
aI1
aI2
aI1
aI3
aI2
aI2
aI1
aI1
aI1
aI1
aI1
aI1
aI2
aI1
aI2
aI1
aI1
aI2
aI1
aI1
aI1
aI1
aI1
aI1
aI2
aI2
aI1
aI1
aI2
aI5
aI1
aI1
aI1
aI1
aI1
aI1
aI5
aI1
aI1
aI1
aI1
aI1
aI3
aI1
aI1
aI3
aI1
aI1
aI1
aI1
aI1
aI1
aI3
aI1
aI1
aI3
aI5
aI3
aI3
aI1
aI1
aI1
aI1
aI1
aI1
aI5
aI1
aI1
aI1
aI4
aI1
aI1
aI5
aI4
aI6
aI2
aI2
aI1
aI1
aI1
aI2
aI2
aI1
aI2
aI1
aI4
aI1
aI1
aI1
aI3
aI4
aI4
aI1
aI1
aI1
aI1
aI1
aI1
aI1
aI1
aI2
aI1
aI1
aI3
aI3
aI1
aI1
aI1
aI1
aI1
aI2
aI1
aI3
aI4
aI3
aI1
aI1
aI1
aI3
aI1
aI2
aI1
aI1
aI1
aI1
aI1
aI1
a(lp2
I0
aI0
aI0
aI0
aI0
aI0
aI0
aI4
aI0
aI1
aI0
aI0
aI2
aI0
aI0
aI0
aI0
aI2
aI0
aI0
aI0
aI0
aI0
aI0
aI0
aI0
aI0
aI0
aI0
aI0
aI0
aI0
aI0
aI0
aI0
aI3
aI1
aI1
aI1
aI1
aI0
aI1
aI5
aI2
aI4
aI3
aI3
aI0
aI6
aI0
aI2
aI3
aI5
aI3
aI6
aI0
aI0
aI6
aI0
aI5
aI0
aI0
aI0
aI4
aI8
aI4
aI4
aI2
aI2
aI1
aI0
aI2
aI0
aI5
aI9
aI6
aI1
aI4
aI5
aI6
aI2
aI0
aI3
aI0
aI2
aI0
aI7
aI2
aI4
aI0
aI0
aI2
aI0
aI0
aI0
aI1
aI1
aI4
aI0
aI0
aI0
aI0
aI1
aI4
aI5
aI7
aI4
aI5
aI2
aI7
aI6
aI7
aI0
aI1
aI0
aI0
aI3
aI0
aI1
aI0
aI0
aI6
aI1
aI0
aI1
aI3
aI4
aI1
aI5
aI0
aI6
aI5
aI3
aI0
aI4
aI0
aI0
aI2
aI1
aI0
aI1
aI1
aI1
aI4
aI0
aI0
aI1
aI2
aI0
aI0
aI6
aI6
aI4
aI3
aI0
aI3
aI2
aI1
aI4
aI0
aI1
aI0
aI0
aI2
aI6
aI4
aI3
aI1
aI1
aI0
aI0
aI0
aI0
aI0
aI0
aI0
aI0
aI5
aI0
aI0
aI6
aI2
aI2
aI1
aI2
aI0
aI0
aI7
aI0
aI3
aI4
aI4
aI3
aI5
aI2
aI8
aI4
aI5
aI0
aI0
aI0
aI2
aI0
aI1
aI0
aI0
aI1
aI2
aI0
aI0
aI0
aI0
aI0
aI11
aI9
aI5
aI3
aI8
aI0
aI2
aI1
aI3
aI7
aI0
aI3
aI8
aI8
aI2
aI0
aI5
aI2
aI0
aI5
aI0
aI5
aI5
aI4
aI0
aI0
aI7
aI3
aI3
aI1
aI3
aI1
aI0
aI3
aI3
aI4
aI2
aI1
aI0
aI0
aI0
aI0
aI8
aI3
aI3
aI5
aI4
aI0
aI0
aI1
aI5
aI0
aI0
aI8
aI1
aI3
aI0
aI0
aI0
aI0
aI0
aI0
aI5
aI2
aI7
aI5
aI3
aI5
aI5
aI0
aI2
aI0
aI1
aI1
aI1
aI1
aI1
aI2
aI1
aI3
aI1
aI1
aI1
aI2
aI1
aI2
aI8
aI4
aI1
aI1
aI1
aI1
aI3
aI1
aI1
aI1
aI1
aI1
aI3
aI4
aI3
aI1
aI1
aI5
aI2
aI1
aI1
aI1
aI4
aI2
aI1
aI1
aI1
aI1
aI1
aI1
aI1
aI3
aI1
aI4
aI2
aI1
aI1
aI1
aI1
aI1
aI2
aI3
aI1
aI1
aI4
aI3
aI2
aI1
aI1
aI3
aI2
aI1
aI1
aI3
aI1
aI1
aI1
aI4
aI1
aI1
aI2
aI2
aI1
aI1
aI1
aI1
aI3
aI1
aI1
aI2
aI4
aI1
aI1
aI2
aI3
aI1
aI6
aI1
aI1
aI9
aI1
aI4
aI4
aI2
aI1
aI3
aI1
aI1
aI1
aI1
aI4
aI1
aI1
aI1
aI2
aI1
aI4
aI1
aI4
aI1
aI1
aI5
aI4
aI3
aI1
aI6
aI1
aI5
aI4
aI1
aI3
aI1
aI2
aI3
aI5
aI1
aI1
a(lp3
I0
aI0
aI0
aI0
aI0
aI0
aI3
aI0
aI0
aI1
aI0
aI2
aI0
aI3
aI0
aI5
aI2
aI2
aI1
aI3
aI0
aI2
aI0
aI2
aI3
aI1
aI0
aI5
aI0
aI1
aI0
aI0
aI0
aI0
aI0
aI2
aI0
aI0
aI0
aI0
aI1
aI3
aI1
aI0
aI1
aI2
aI0
aI0
aI1
aI0
aI0
aI3
aI2
aI0
aI3
aI1
aI0
aI2
aI3
aI0
aI2
aI1
aI2
aI5
aI1
aI5
aI0
aI3
aI0
aI3
aI1
aI0
aI2
aI4
aI2
aI1
aI0
aI1
aI3
aI0
aI0
aI5
aI0
aI4
aI3
aI0
aI4
aI0
aI4
aI3
aI1
aI0
aI0
aI1
aI0
aI4
aI0
aI0
aI3
aI4
aI5
aI4
aI0
aI0
aI0
aI0
aI1
aI1
aI2
aI0
aI3
aI0
aI0
aI0
aI0
aI0
aI0
aI0
aI0
aI3
aI2
aI0
aI0
aI1
aI1
aI3
aI0
aI0
aI1
aI1
aI0
aI1
aI1
aI0
aI1
aI0
aI0
aI0
aI0
aI0
aI0
aI1
aI1
aI3
aI1
aI1
aI1
aI3
aI1
aI1
aI1
aI2
aI1
aI1
aI1
aI1
aI1
aI1
aI2
aI1
aI1
aI2
aI5
aI2
aI1
aI1
aI1
aI4
aI1
aI4
aI1
aI2
aI1
aI1
aI1
aI3
aI2
aI1
aI1
aI3
aI1
aI1
aI1
aI4
aI2
aI1
aI1
aI1
aI1
aI1
aI1
aI1
aI1
aI1
aI1
aI1
aI1
aI1
aI1
aI1
aI1
aI1
aI1
aI3
aI1
aI1
aI2
aI1
aI2
aI1
aI2
aI3
aI3
aI1
aI1
aI1
aI1
aI1
aI1
aI1
aI6
aI2
aI1
aI1
aI1
aI1
aI1
aI1
aI1
aI1
aI2
aI5
aI2
aI2
aI1
aI1
aI1
aI1
aI1
aI1
aI1
aI2
aI2
aI1
aI1
aI1
aI2
aI2
aI1
aI1
aI1
aI2
aI1
aI1
aI1
aI1
aI1
aI1
aI1
aI1
aI1
aI1
aI1
aI1
aI1
aI1
aI1
aI1
aI1
aI1
aI1
aI1
aI1
aI2
aI1
aI4
aI1
aI2
aI1
a(lp4
I0
aI0
aI0
aI0
aI0
aI0
aI2
aI4
aI4
aI4
aI0
aI0
aI0
aI0
aI0
aI3
aI0
aI1
aI0
aI0
aI0
aI0
aI0
aI0
aI0
aI0
aI0
aI0
aI0
aI0
aI0
aI0
aI0
aI1
aI2
aI1
aI0
aI0
aI0
aI0
aI0
aI0
aI0
aI0
aI0
aI0
aI1
aI5
aI0
aI0
aI0
aI2
aI0
aI0
aI0
aI0
aI2
aI0
aI1
aI0
aI1
aI0
aI1
aI2
aI0
aI3
aI1
aI2
aI5
aI2
aI2
aI1
aI3
aI4
aI2
aI0
aI0
aI1
aI1
aI2
aI5
aI4
aI0
aI2
aI1
aI4
aI1
aI4
aI1
aI2
aI0
aI2
aI0
aI4
aI0
aI2
aI0
aI0
aI3
aI1
aI0
aI0
aI1
aI3
aI1
aI0
aI2
aI4
aI3
aI0
aI0
aI1
aI1
aI1
aI0
aI7
aI6
aI2
aI5
aI0
aI2
aI4
aI2
aI2
aI5
aI6
aI2
aI0
aI5
aI3
aI0
aI1
aI9
aI0
aI4
aI8
aI2
aI4
aI8
aI7
aI5
aI1
aI3
aI3
aI6
aI5
aI0
aI4
aI3
aI2
aI0
aI3
aI1
aI4
aI0
aI0
aI0
aI0
aI3
aI0
aI2
aI2
aI0
aI0
aI0
aI5
aI0
aI2
aI4
aI0
aI5
aI0
aI2
aI6
aI6
aI0
aI0
aI4
aI2
aI0
aI3
aI7
aI2
aI3
aI4
aI5
aI4
aI3
aI2
aI5
aI0
aI5
aI3
aI2
aI5
aI4
aI3
aI1
aI0
aI7
aI2
aI1
aI4
aI10
aI7
aI0
aI2
aI0
aI0
aI3
aI0
aI2
aI0
aI2
aI0
aI4
aI0
aI0
aI0
aI0
aI3
aI0
aI0
aI3
aI1
aI4
aI5
aI0
aI0
aI0
aI0
aI3
aI2
aI2
aI1
aI0
aI0
aI0
aI0
aI4
aI1
aI4
aI5
aI6
aI0
aI0
aI0
aI0
aI2
aI0
aI0
aI4
aI0
aI1
aI0
aI2
aI0
aI0
aI0
aI3
aI5
aI3
aI5
aI1
aI5
aI2
aI4
aI1
aI7
aI0
aI0
aI0
aI0
aI8
aI0
aI0
aI0
aI0
aI0
aI0
aI0
aI1
aI3
aI2
aI1
aI1
aI1
aI0
aI8
aI3
aI1
aI2
aI1
aI1
aI1
aI1
aI4
aI4
aI3
aI1
aI3
aI1
aI1
aI1
aI1
aI1
aI2
aI1
aI2
aI1
aI1
aI1
aI1
aI1
aI1
aI1
aI1
aI1
aI2
aI3
aI1
aI3
aI5
aI3
aI1
aI2
aI3
aI4
aI1
aI1
aI1
aI3
aI2
aI5
aI2
aI1
aI4
aI1
aI5
aI1
aI3
aI1
aI4
aI1
aI5
aI1
aI1
aI1
aI1
aI1
aI2
aI1
aI1
aI2
aI3
aI1
aI2
aI3
aI1
aI2
aI3
aI1
aI2
aI2
aI1
aI1
aI2
aI3
aI2
aI1
aI2
aI2
aI4
aI2
aI1
aI7
aI2
aI1
aI4
aI1
aI4
aI3
aI6
aI5
aI2
aI3
aI1
aI1
aI2
aI5
aI1
aI1
aI2
aI1
aI1
aI1
aI3
aI1
aI2
aI4
aI2
aI2
aI1
aI1
aI1
aI1
aI1
aI2
aI1
aI1
aI2
aI4
aI1
aI1
aI4
aI1
aI1
aI1
aI2
aI1
aI1
aI1
aI1
aI3
aI1
aI3
aI2
aI2
aI5
aI1
aI2
aI1
aI1
aI1
aI2
aI1
aI1
aI1
aI1
aI1
aI4
aI1
aI1
a(lp5
I0
aI0
aI4
aI5
aI4
aI5
aI1
aI5
aI2
aI1
aI2
aI2
aI2
aI2
aI0
aI0
aI0
aI2
aI0
aI0
aI0
aI0
aI0
aI2
aI0
aI1
aI1
aI3
aI0
aI2
aI3
aI0
aI0
aI0
aI2
aI0
aI1
aI1
aI4
aI2
aI0
aI1
aI0
aI0
aI0
aI0
aI0
aI0
aI1
aI1
aI4
aI2
aI0
aI4
aI2
aI5
aI1
aI2
aI3
aI0
aI3
aI2
aI1
aI0
aI0
aI2
aI0
aI0
aI0
aI4
aI2
aI0
aI2
aI0
aI1
aI3
aI3
aI2
aI0
aI0
aI1
aI1
aI4
aI1
aI1
aI2
aI5
aI3
aI2
aI1
aI0
aI1
aI1
aI1
aI1
aI1
aI1
aI2
aI2
aI2
aI1
aI1
aI3
aI1
aI1
aI1
aI1
aI1
aI2
aI1
aI5
aI1
aI1
aI2
aI1
aI4
aI3
aI3
aI2
aI3
aI2
aI1
aI2
aI2
aI1
aI1
aI1
aI3
aI3
aI4
aI1
aI1
aI2
aI1
aI1
aI2
aI1
aI1
aI1
aI2
aI2
aI1
aI1
aI1
aI6
aI1
aI1
aI3
aI1
aI1
aI1
aI1
aI1
aI1
aI2
aI2
aI1
aI1
aI3
aI1
aI3
aI1
aI1
aI3
aI2
aI1
aI1
aI3
aI3
aI1
aI1
aI1
aI1
aI1
aI3
aI1
aI2
aI1
aI1
aI1
aI1
aI1
aI1
aI1
aI1
aI1
aI1
aI2
aI5
aI3
aI1
aI1
aI1
aI2
aI1
aI3
aI2
aI1
aI1
aI1
aI1
aI1
aI6
aI1
aI1
aI1
aI1
aI2
aI1
aI2
aI1
aI1
aI2
aI1
aI1
aI1
aI1
aI1
aI2
aI1
aI4
aI1
aI1
aI2
aI1
aI1
aI7
aI6
aI1
aI2
aI2
aI1
aI1
aI4
aI4
aI1
aI3
aI1
aI2
aI1
aI2
aI1
aI1
aI1
aI4
aI3
aI2
aI1
aI1
aI1
aI1
aI1
aI1
aI1
aI1
aI1
aI2
aI3
aI1
aI1
aI1
aI4
aI3
aI1
aI2
aI1
aI1
aI2
aI3
a(lp6
I0
aI0
aI0
aI0
aI0
aI1
aI1
aI1
aI1
aI1
aI0
aI0
aI4
aI1
aI0
aI0
aI0
aI0
aI0
aI0
aI0
aI0
aI0
aI0
aI0
aI0
aI0
aI0
aI0
aI0
aI0
aI0
aI1
aI0
aI0
aI4
aI1
aI1
aI1
aI4
aI0
aI0
aI1
aI3
aI0
aI0
aI0
aI0
aI0
aI0
aI5
aI5
aI4
aI6
aI1
aI3
aI0
aI3
aI6
aI0
aI4
aI4
aI0
aI2
aI0
aI0
aI0
aI0
aI0
aI0
aI1
aI1
aI6
aI0
aI0
aI0
aI4
aI0
aI3
aI6
aI1
aI3
aI2
aI0
aI4
aI2
aI0
aI0
aI0
aI0
aI0
aI0
aI0
aI0
aI0
aI5
aI0
aI0
aI7
aI3
aI0
aI4
aI0
aI4
aI0
aI1
aI0
aI2
aI8
aI3
aI6
aI4
aI0
aI5
aI7
aI7
aI0
aI5
aI4
aI4
aI2
aI0
aI6
aI0
aI0
aI0
aI0
aI0
aI1
aI0
aI0
aI0
aI0
aI5
aI1
aI1
aI0
aI1
aI0
aI3
aI3
aI4
aI8
aI5
aI2
aI5
aI2
aI0
aI0
aI0
aI0
aI0
aI0
aI1
aI0
aI5
aI1
aI5
aI4
aI4
aI2
aI6
aI6
aI0
aI6
aI3
aI3
aI2
aI2
aI1
aI3
aI7
aI0
aI3
aI0
aI0
aI0
aI0
aI0
aI0
aI0
aI0
aI0
aI0
aI5
aI2
aI1
aI0
aI5
aI2
aI6
aI7
aI8
aI5
aI2
aI0
aI0
aI0
aI0
aI0
aI0
aI0
aI6
aI0
aI1
aI0
aI5
aI0
aI2
aI0
aI0
aI0
aI11
aI1
aI1
aI1
aI0
aI0
aI0
aI1
aI2
aI0
aI4
aI3
aI1
aI0
aI2
aI3
aI3
aI3
aI1
aI6
aI1
aI1
aI0
aI0
aI3
aI3
aI0
aI2
aI2
aI4
aI1
aI0
aI0
aI2
aI1
aI1
aI4
aI1
aI0
aI0
aI2
aI6
aI1
aI1
aI1
aI2
aI0
aI0
aI0
aI1
aI3
aI1
aI0
aI3
aI0
aI0
aI3
aI5
aI1
aI6
aI2
aI5
aI2
aI0
aI0
aI8
aI0
aI6
aI5
aI3
aI4
aI0
aI8
aI3
aI1
aI4
aI0
aI0
aI4
aI2
aI7
aI10
aI4
aI2
aI0
aI0
aI1
aI1
aI1
aI5
aI4
aI1
aI1
aI1
aI1
aI1
aI1
aI1
aI1
aI4
aI3
aI1
aI6
aI1
aI1
aI1
aI1
aI2
aI5
aI6
aI1
aI1
aI1
aI1
aI2
aI1
aI1
aI1
aI1
aI4
aI1
aI2
aI1
aI1
aI1
aI1
aI2
aI7
aI4
aI1
aI1
aI4
aI1
aI1
aI3
aI1
aI1
aI6
aI1
aI4
aI1
aI2
aI4
aI1
aI1
aI1
aI1
aI4
aI1
aI4
aI1
aI1
aI1
aI2
aI1
aI1
aI1
aI2
aI1
aI1
aI4
aI1
aI1
aI3
aI1
aI1
aI2
aI1
aI4
aI2
aI2
aI4
a(lp7
I3
aI5
aI6
aI1
aI4
aI3
aI0
aI0
aI0
aI4
aI0
aI2
aI0
aI2
aI3
aI1
aI1
aI0
aI0
aI5
aI2
aI4
aI5
aI0
aI4
aI1
aI2
aI3
aI3
aI5
aI5
aI3
aI5
aI1
aI1
aI2
aI5
aI5
aI2
aI1
aI1
aI5
aI1
aI1
aI6
aI1
aI2
aI0
aI0
aI1
aI1
aI2
aI1
aI4
aI5
aI0
aI4
aI3
aI1
aI4
aI0
aI0
aI0
aI4
aI1
aI2
aI0
aI2
aI2
aI0
aI3
aI6
aI3
aI2
aI0
aI1
aI0
aI3
aI1
aI0
aI3
aI0
aI3
aI1
aI1
aI2
aI1
aI1
aI4
aI6
aI4
aI1
aI1
aI1
aI2
aI1
aI1
aI1
aI1
aI1
aI3
aI1
aI1
aI2
aI1
aI3
aI1
aI1
aI3
aI6
aI4
aI1
aI1
aI3
aI1
aI1
aI1
aI2
aI7
aI2
aI1
aI2
aI1
aI3
aI3
aI6
aI2
aI1
aI1
aI4
aI2
aI4
aI2
aI1
aI1
aI2
aI1
aI1
aI1
aI1
aI1
aI1
aI1
aI1
aI1
aI1
aI3
aI2
aI5
aI3
aI1
aI1
aI1
aI1
aI1
aI1
aI1
aI1
aI3
aI1
aI3
aI1
aI2
aI1
aI1
aI2
aI3
aI1
aI1
aI1
aI1
aI1
aI2
aI3
aI1
aI1
aI3
aI1
aI1
aI1
aI1
aI5
aI2
aI1
aI1
aI1
aI1
aI5
aI4
aI4
aI1
aI4
aI1
aI1
aI2
aI2
aI1
aI2
aI1
aI1
aI4
aI4
aI1
aI1
aI6
aI5
aI1
aI1
aI3
aI1
aI4
aI3
aI1
aI1
aI2
aI1
aI1
aI1
aI2
aI1
aI1
aI1
aI1
aI1
aI2
aI2
aI1
aI1
aI1
aI1
aI1
aI1
aI1
aI5
aI6
aI1
aI1
aI1
aI1
aI5
aI1
aI4
aI1
aI1
aI2
aI2
aI2
aI1
aI3
aI2
aI1
aI1
aI1
aI1
aI1
aI2
aI1
aI2
aI3
aI1
aI1
aI5
aI1
aI1
aI1
aI1
aI2
aI1
aI2
aI3
aI1
aI4
aI1
aI2
aI2
aI2
aI1
aI4
aI1
aI1
aI3
aI1
aI1
aI1
aI1
aI1
aI1
aI2
aI4
aI5
aI1
aI1
aI3
aI1
aI2
aI1
aI4
aI1
aI1
aI1
aI2
aI2
aI2
aI1
aI1
aI1
aI1
aI2
aI1
aI1
aI1
aI1
aI1
aI2
aI2
aI1
aI4
aI4
aI2
aI2
aI1
aI1
aI1
aI1
aI1
aI4
aI3
aI1
aI1
aI1
aI1
aI1
aI4
aI3
aI1
aI1
aI1
aI1
aI1
aI1
aI1
aI2
aI1
aI2
aI2
aI3
aI1
aI1
aI1
aI4
aI2
aI1
aI1
aI1
aI5
aI3
aI6
aI1
aI2
aI1
aI2
aI1
aI2
aI3
aI1
aI1
aI1
aI1
aI1
aI1
aI1
a(lp8
I0
aI0
aI0
aI0
aI0
aI0
aI0
aI0
aI0
aI0
aI0
aI0
aI0
aI0
aI0
aI0
aI0
aI0
aI0
aI0
aI6
aI0
aI0
aI0
aI0
aI0
aI0
aI0
aI0
aI0
aI5
aI1
aI4
aI4
aI1
aI0
aI6
aI0
aI0
aI0
aI1
aI0
aI0
aI4
aI1
aI0
aI3
aI5
aI1
aI0
aI0
aI5
aI0
aI7
aI1
aI3
aI0
aI4
aI4
aI0
aI3
aI2
aI1
aI1
aI7
aI3
aI0
aI5
aI0
aI0
aI8
aI3
aI5
aI0
aI0
aI7
aI1
aI5
aI1
aI1
aI1
aI1
aI3
aI1
aI0
aI0
aI0
aI4
aI0
aI0
aI4
aI1
aI1
aI1
aI2
aI0
aI2
aI0
aI2
aI2
aI0
aI0
aI1
aI8
aI3
aI1
aI0
aI3
aI5
aI0
aI0
aI0
aI0
aI0
aI0
aI0
aI0
aI6
aI0
aI0
aI0
aI0
aI0
aI0
aI0
aI0
aI0
aI5
aI5
aI5
aI0
aI4
aI6
aI0
aI6
aI3
aI5
aI2
aI1
aI7
aI4
aI1
aI0
aI0
aI0
aI4
aI6
aI9
aI7
aI8
aI0
aI8
aI1
aI2
aI3
aI5
aI2
aI0
aI0
aI0
aI6
aI2
aI5
aI3
aI3
aI0
aI0
aI0
aI0
aI0
aI7
aI0
aI0
aI0
aI0
aI0
aI0
aI8
aI4
aI6
aI0
aI0
aI5
aI6
aI2
aI0
aI5
aI0
aI0
aI5
aI0
aI0
aI0
aI0
aI0
aI0
aI0
aI8
aI4
aI3
aI5
aI6
aI0
aI3
aI10
aI4
aI3
aI3
aI3
aI0
aI0
aI7
aI0
aI3
aI2
aI0
aI4
aI1
aI0
aI4
aI2
aI2
aI0
aI0
aI0
aI3
aI4
aI0
aI0
aI0
aI0
aI0
aI0
aI6
aI1
aI0
aI10
aI5
aI0
aI7
aI0
aI0
aI7
aI2
aI3
aI2
aI2
aI2
aI5
aI0
aI0
aI6
aI0
aI0
aI9
aI5
aI4
aI0
aI2
aI0
aI8
aI3
aI3
aI1
aI0
aI4
aI0
aI7
aI1
aI1
aI8
aI3
aI3
aI0
aI0
aI0
aI1
aI5
aI8
aI1
aI1
aI9
aI5
aI2
aI5
aI0
aI8
aI4
aI1
aI4
aI5
aI4
aI0
aI0
aI2
aI2
aI0
aI6
aI3
aI1
aI3
aI2
aI0
aI0
aI0
aI0
aI0
aI8
aI3
aI7
aI3
aI1
aI5
aI3
aI0
aI4
aI1
aI0
aI1
aI7
aI4
aI1
aI0
aI7
aI4
aI4
aI6
aI3
aI8
aI2
aI5
aI0
aI2
aI7
aI2
aI7
aI5
aI3
aI3
aI0
aI7
aI0
aI8
aI2
aI5
aI7
aI0
aI0
aI6
aI0
aI6
aI2
aI0
aI0
aI0
aI0
aI0
aI0
aI0
aI0
aI0
aI0
aI6
aI1
aI4
aI0
aI3
aI1
aI0
aI2
aI5
aI1
aI4
aI1
aI2
aI5
aI0
aI0
aI8
aI4
aI1
aI6
aI1
aI2
aI2
aI0
aI0
aI9
aI0
aI1
aI0
aI0
aI0
aI0
aI0
aI0
aI4
aI1
aI4
aI2
aI6
aI2
aI0
aI0
aI0
aI1
aI8
aI4
aI0
aI0
aI0
aI0
aI7
aI2
aI4
aI3
aI0
aI9
aI1
aI4
aI0
aI5
aI1
aI3
aI5
aI2
aI5
aI0
aI0
aI0
aI0
aI5
aI3
aI0
aI3
aI0
aI0
aI0
aI0
aI5
aI1
aI5
aI6
aI7
aI2
aI3
aI1
aI1
aI1
aI7
aI1
aI4
aI7
aI3
aI3
aI5
aI1
aI5
aI6
aI1
aI5
aI3
aI3
aI1
aI2
aI2
aI1
aI2
aI1
aI1
aI2
aI2
aI4
aI1
aI2
aI3
aI4
aI1
aI1
aI1
aI2
aI1
aI1
aI1
aI2
aI4
aI1
aI1
aI2
aI4
aI1
aI5
aI2
aI2
aI1
aI1
aI1
aI2
aI1
aI1
aI1
aI1
aI1
aI1
aI1
aI1
aI1
aI7
aI1
aI1
aI1
aI2
aI6
aI3
aI1
aI1
aI2
aI1
aI2
aI1
aI1
aI1
aI1
aI1
a(lp9
I1
aI4
aI2
aI0
aI1
aI1
aI2
aI3
aI5
aI0
aI4
aI1
aI2
aI2
aI5
aI0
aI3
aI0
aI6
aI0
aI0
aI0
aI2
aI1
aI4
aI3
aI4
aI1
aI2
aI3
aI1
aI1
aI4
aI1
aI2
aI4
aI0
aI1
aI1
aI1
aI3
aI5
aI2
aI0
aI1
aI4
aI0
aI8
aI7
aI1
aI4
aI3
aI5
aI1
aI1
aI1
aI0
aI1
aI2
aI1
aI1
aI2
aI3
aI5
aI4
aI1
aI1
aI3
aI1
aI1
aI1
aI5
aI1
aI1
aI3
aI3
aI1
aI1
aI1
aI1
aI2
aI4
aI1
aI1
aI2
aI2
aI2
aI2
aI1
aI1
aI1
aI1
aI1
aI6
aI5
aI1
aI4
aI2
aI2
aI4
aI4
aI2
aI3
aI1
aI4
aI6
aI4
aI1
aI1
aI1
aI1
aI1
aI1
aI2
aI1
aI1
aI1
aI1
aI1
aI3
aI7
aI1
aI1
aI1
aI2
aI1
aI1
aI1
aI6
aI4
aI7
aI4
aI1
aI2
aI2
aI7
aI2
aI1
aI2
aI1
aI2
aI2
aI1
aI1
aI1
aI3
aI6
aI1
aI1
aI2
aI4
aI1
aI1
aI4
aI3
aI2
aI1
aI2
aI1
aI1
aI4
aI2
aI1
aI1
aI2
aI1
aI1
aI2
aI1
aI1
aI1
aI1
aI1
aI2
aI1
aI1
aI1
aI3
aI1
aI1
aI1
aI1
aI1
aI6
aI6
aI1
aI1
aI1
aI2
aI1
aI1
aI5
aI6
aI1
aI3
aI1
aI1
aI1
aI3
aI4
aI1
aI1
a(lp10
I0
aI0
aI0
aI0
aI0
aI0
aI0
aI0
aI0
aI0
aI0
aI7
aI4
aI9
aI3
aI3
aI3
aI2
aI8
aI2
aI5
aI1
aI0
aI0
aI6
aI3
aI6
aI0
aI2
aI4
aI3
aI1
aI1
aI4
aI4
aI3
aI6
aI4
aI1
aI4
aI0
aI3
aI1
aI1
aI7
aI4
aI1
aI0
aI6
aI0
aI2
aI3
aI0
aI4
aI0
aI0
aI3
aI7
aI6
aI0
aI0
aI0
aI0
aI0
aI5
aI3
aI4
aI0
aI3
aI2
aI8
aI0
aI2
aI3
aI6
aI0
aI6
aI1
aI0
aI0
aI0
aI0
aI0
aI7
aI0
aI2
aI1
aI4
aI0
aI3
aI2
aI1
aI0
aI2
aI0
aI3
aI0
aI4
aI2
aI8
aI2
aI4
aI3
aI4
aI5
aI6
aI0
aI6
aI2
aI6
aI2
aI2
aI0
aI4
aI0
aI1
aI1
aI0
aI0
aI0
aI0
aI0
aI0
aI0
aI1
aI0
aI4
aI6
aI3
aI2
aI3
aI6
aI3
aI3
aI8
aI0
aI0
aI0
aI4
aI1
aI0
aI3
aI0
aI2
aI0
aI0
aI6
aI1
aI6
aI8
aI3
aI1
aI3
aI6
aI6
aI2
aI0
aI0
aI7
aI5
aI0
aI5
aI0
aI0
aI3
aI1
aI0
aI0
aI1
aI0
aI0
aI6
aI3
aI0
aI4
aI0
aI0
aI0
aI0
aI0
aI0
aI0
aI0
aI3
aI5
aI2
aI3
aI0
aI4
aI5
aI1
aI0
aI0
aI5
aI3
aI5
aI0
aI3
aI7
aI2
aI2
aI1
aI8
aI2
aI4
aI7
aI2
aI5
aI6
aI5
aI4
aI3
aI4
aI1
aI0
aI4
aI3
aI3
aI0
aI1
aI0
aI1
aI0
aI0
aI2
aI0
aI0
aI0
aI0
aI0
aI0
aI0
aI4
aI0
aI0
aI0
aI7
aI3
aI0
aI0
aI1
aI3
aI0
aI0
aI4
aI0
aI3
aI0
aI0
aI5
aI4
aI3
aI0
aI0
aI1
aI2
aI3
aI0
aI0
aI0
aI0
aI0
aI1
aI6
aI0
aI5
aI7
aI6
aI5
aI5
aI6
aI1
aI2
aI0
aI0
aI4
aI3
aI0
aI0
aI0
aI7
aI4
aI1
aI4
aI6
aI0
aI4
aI4
aI2
aI2
aI5
aI4
aI0
aI0
aI7
aI2
aI4
aI3
aI3
aI5
aI7
aI5
aI1
aI4
aI1
aI5
aI2
aI7
aI2
aI3
aI1
aI5
aI1
aI6
aI4
aI11
aI1
aI1
aI1
aI5
aI1
aI4
aI1
atp11
.