((dp1
I0
I88
sI1
I148
sI2
I15
sI3
I12
sI4
I9
sI5
I7
sI6
I6
s(dp2
I0
I422
sI1
I410
sI2
I8
sI3
I3
sI4
I1
sI5
I4
sI6
I1
s(dp3
I0
I127
sI1
I149
sI2
I10
sI3
I6
sI4
I3
sI5
I3
sI6
I1
s(dp4
I0
I396
sI1
I397
sI2
I9
sI3
I3
s(dp5
I0
I87
sI1
I180
sI2
I21
sI3
I7
sI4
I1
sI6
I2
s(dp6
I0
I322
sI1
I397
sI2
I6
sI3
I1
sI4
I1
s(dp7
I0
I169
sI1
I259
sI2
I6
sI3
I5
s(dp8
I0
I255
sI1
I866
sI2
I41
sI3
I28
sI4
I18
sI5
I2
sI6
I4
s(dp9
I0
I81
sI1
I216
sI2
I2
sI4
I1
sg9
tp10
.