((lp1
I0
aI0
aI0
aI0
aI0
aI1
aI0
aI0
aI0
aI6
aI0
aI2
aI1
aI0
aI0
aI15
aI4
aI5
aI10
aI0
aI0
aI2
aI0
aI0
aI0
aI20
aI15
aI3
aI0
aI0
aI7
aI0
aI12
aI3
aI0
aI1
aI0
aI4
aI11
aI6
aI3
aI3
aI0
aI0
aI25
aI1
aI20
aI0
aI12
aI0
aI5
aI3
aI23
aI11
aI0
aI8
aI0
aI11
aI1
aI0
aI1
aI22
aI0
aI5
aI0
aI1
aI1
aI0
aI4
aI0
aI21
aI0
aI16
aI3
aI9
aI22
aI3
aI11
aI3
aI2
aI8
aI1
aI1
aI1
aI0
aI14
aI2
aI1
aI0
a(lp2
I0
aI0
aI0
aI0
aI0
aI0
aI0
aI7
aI0
aI1
aI0
aI0
aI2
aI0
aI0
aI0
aI0
aI2
aI0
aI0
aI0
aI0
aI0
aI0
aI0
aI0
aI0
aI0
aI0
aI0
aI0
aI0
aI0
aI0
aI0
aI3
aI2
aI2
aI3
aI2
aI0
aI1
aI5
aI5
aI5
aI3
aI3
aI0
aI6
aI0
aI2
aI4
aI5
aI3
aI6
aI0
aI0
aI6
aI0
aI5
aI0
aI0
aI0
aI4
aI8
aI4
aI4
aI2
aI5
aI1
aI0
aI2
aI0
aI19
aI9
aI6
aI1
aI4
aI5
aI6
aI2
aI0
aI3
aI0
aI2
aI0
aI7
aI2
aI4
aI0
aI0
aI2
aI0
aI0
aI0
aI1
aI2
aI4
aI0
aI0
aI0
aI0
aI1
aI4
aI5
aI7
aI7
aI5
aI5
aI7
aI6
aI7
aI0
aI1
aI0
aI0
aI6
aI0
aI2
aI0
aI0
aI27
aI1
aI0
aI1
aI4
aI21
aI1
aI5
aI0
aI28
aI25
aI9
aI0
aI11
aI0
aI0
aI6
aI8
aI0
aI2
aI1
aI1
aI4
aI0
aI0
aI1
aI2
aI0
aI0
aI6
aI8
aI4
aI6
aI0
aI4
aI2
aI1
aI11
aI0
aI11
aI0
aI0
aI2
aI7
aI4
aI3
aI1
aI1
aI0
aI0
aI0
aI0
aI0
aI0
aI0
aI0
aI5
aI0
aI0
aI6
aI2
aI2
aI5
aI8
aI0
aI0
aI7
aI0
aI3
aI4
aI4
aI3
aI9
aI2
aI9
aI4
aI5
aI0
aI0
aI0
aI2
aI0
aI1
aI0
aI0
aI1
aI3
aI0
aI0
aI0
aI0
aI0
aI11
aI11
aI15
aI3
aI8
aI0
aI6
aI1
aI3
aI8
aI0
aI8
aI8
aI9
aI2
aI0
aI5
aI2
aI0
aI5
aI0
aI5
aI5
aI4
aI0
aI0
aI7
aI12
aI7
aI7
aI14
aI1
aI0
aI7
aI5
aI7
aI8
aI1
aI0
aI0
aI0
aI0
aI8
aI3
aI3
aI5
aI4
aI0
aI0
aI1
aI5
aI0
aI0
aI8
aI1
aI3
aI0
aI0
aI0
aI0
aI0
aI0
aI5
aI2
aI7
aI5
aI3
aI6
aI5
aI0
aI2
aI0
a(lp3
I0
aI0
aI0
aI0
aI0
aI0
aI4
aI0
aI0
aI1
aI0
aI2
aI0
aI3
aI0
aI12
aI6
aI4
aI3
aI5
aI0
aI4
aI0
aI3
aI6
aI1
aI0
aI5
aI0
aI1
aI0
aI0
aI0
aI0
aI0
aI2
aI0
aI0
aI0
aI0
aI3
aI19
aI6
aI0
aI4
aI8
aI0
aI0
aI5
aI0
aI0
aI8
aI3
aI0
aI7
aI3
aI0
aI2
aI6
aI0
aI3
aI1
aI3
aI10
aI2
aI9
aI0
aI5
aI0
aI8
aI4
aI0
aI8
aI17
aI16
aI2
aI0
aI2
aI17
aI0
aI0
aI11
aI0
aI7
aI8
aI0
aI8
aI0
aI8
aI4
aI2
aI0
aI0
aI2
aI0
aI7
aI0
aI0
aI4
aI8
aI7
aI6
aI0
aI0
aI0
aI0
aI1
aI4
aI2
aI0
aI4
aI0
aI0
aI0
aI0
aI0
aI0
aI0
aI0
aI7
aI2
aI0
aI0
aI2
aI1
aI3
aI0
aI0
aI1
aI4
aI0
aI1
aI1
aI0
aI1
aI0
aI0
aI0
aI0
aI0
aI0
a(lp4
I0
aI0
aI0
aI0
aI0
aI0
aI2
aI4
aI4
aI5
aI0
aI0
aI0
aI0
aI0
aI3
aI0
aI2
aI0
aI0
aI0
aI0
aI0
aI0
aI0
aI0
aI0
aI0
aI0
aI0
aI0
aI0
aI0
aI1
aI2
aI1
aI0
aI0
aI0
aI0
aI0
aI0
aI0
aI0
aI0
aI0
aI1
aI5
aI0
aI0
aI0
aI2
aI0
aI0
aI0
aI0
aI3
aI0
aI1
aI0
aI1
aI0
aI1
aI2
aI0
aI3
aI1
aI2
aI6
aI2
aI2
aI1
aI11
aI10
aI4
aI0
aI0
aI2
aI2
aI6
aI23
aI15
aI0
aI6
aI1
aI18
aI7
aI19
aI1
aI5
aI0
aI3
aI0
aI4
aI0
aI2
aI0
aI0
aI3
aI1
aI0
aI0
aI1
aI6
aI2
aI0
aI3
aI27
aI3
aI0
aI0
aI1
aI1
aI8
aI0
aI8
aI10
aI2
aI5
aI0
aI2
aI8
aI4
aI2
aI5
aI6
aI2
aI0
aI5
aI3
aI0
aI1
aI9
aI0
aI15
aI8
aI2
aI4
aI8
aI7
aI5
aI5
aI3
aI3
aI6
aI5
aI0
aI4
aI3
aI2
aI0
aI3
aI1
aI4
aI0
aI0
aI0
aI0
aI3
aI0
aI2
aI2
aI0
aI0
aI0
aI5
aI0
aI2
aI4
aI0
aI5
aI0
aI2
aI6
aI6
aI0
aI0
aI4
aI2
aI0
aI3
aI7
aI2
aI3
aI4
aI5
aI4
aI3
aI7
aI5
aI0
aI5
aI3
aI2
aI8
aI4
aI9
aI1
aI0
aI12
aI2
aI1
aI4
aI10
aI7
aI0
aI2
aI0
aI0
aI3
aI0
aI2
aI0
aI2
aI0
aI4
aI0
aI0
aI0
aI0
aI3
aI0
aI0
aI18
aI1
aI16
aI36
aI0
aI0
aI0
aI0
aI7
aI4
aI10
aI1
aI0
aI0
aI0
aI0
aI4
aI3
aI4
aI12
aI6
aI0
aI0
aI0
aI0
aI2
aI0
aI0
aI4
aI0
aI1
aI0
aI2
aI0
aI0
aI0
aI3
aI5
aI3
aI5
aI1
aI5
aI2
aI4
aI1
aI7
aI0
aI0
aI0
aI0
aI8
aI0
aI0
aI0
aI0
aI0
aI0
aI0
aI1
aI3
aI5
aI1
aI2
aI1
aI0
aI8
aI4
aI1
aI4
aI2
aI1
aI1
aI2
aI4
aI4
aI9
a(lp5
I0
aI0
aI5
aI9
aI7
aI19
aI3
aI20
aI18
aI1
aI2
aI4
aI8
aI13
aI0
aI0
aI0
aI3
aI0
aI0
aI0
aI0
aI0
aI7
aI0
aI4
aI5
aI12
aI0
aI9
aI4
aI0
aI0
aI0
aI6
aI0
aI1
aI2
aI17
aI5
aI0
aI2
aI0
aI0
aI0
aI0
aI0
aI0
aI1
aI1
aI21
aI2
aI0
aI11
aI3
aI7
aI3
aI2
aI20
aI0
aI8
aI4
aI14
aI0
aI0
aI5
aI0
aI0
aI0
aI9
aI2
aI0
aI4
aI0
aI1
aI6
aI10
aI2
aI0
aI0
aI4
aI2
aI33
aI1
aI8
aI7
aI23
aI11
aI14
aI6
aI0
a(lp6
I0
aI0
aI0
aI0
aI0
aI1
aI1
aI1
aI1
aI1
aI0
aI0
aI7
aI1
aI0
aI0
aI0
aI0
aI0
aI0
aI0
aI0
aI0
aI0
aI0
aI0
aI0
aI0
aI0
aI0
aI0
aI0
aI1
aI0
aI0
aI4
aI1
aI1
aI2
aI4
aI0
aI0
aI1
aI4
aI0
aI0
aI0
aI0
aI0
aI0
aI16
aI5
aI4
aI6
aI1
aI3
aI0
aI3
aI6
aI0
aI4
aI4
aI0
aI2
aI0
aI0
aI0
aI0
aI0
aI0
aI1
aI1
aI6
aI0
aI0
aI0
aI4
aI0
aI3
aI6
aI1
aI5
aI2
aI0
aI4
aI2
aI0
aI0
aI0
aI0
aI0
aI0
aI0
aI0
aI0
aI5
aI0
aI0
aI7
aI3
aI0
aI4
aI0
aI6
aI0
aI1
aI0
aI2
aI8
aI3
aI6
aI4
aI0
aI5
aI7
aI7
aI0
aI5
aI4
aI4
aI2
aI0
aI6
aI0
aI0
aI0
aI0
aI0
aI1
aI0
aI0
aI0
aI0
aI5
aI1
aI1
aI0
aI1
aI0
aI3
aI3
aI4
aI8
aI5
aI2
aI12
aI10
aI0
aI0
aI0
aI0
aI0
aI0
aI1
aI0
aI5
aI1
aI5
aI4
aI4
aI2
aI6
aI7
aI0
aI6
aI3
aI3
aI2
aI2
aI1
aI3
aI7
aI0
aI3
aI0
aI0
aI0
aI0
aI0
aI0
aI0
aI0
aI0
aI0
aI6
aI2
aI1
aI0
aI5
aI2
aI7
aI7
aI8
aI5
aI2
aI0
aI0
aI0
aI0
aI0
aI0
aI0
aI6
aI0
aI1
aI0
aI5
aI0
aI2
aI0
aI0
aI0
aI11
aI1
aI1
aI1
aI0
aI0
aI0
aI1
aI2
aI0
aI4
aI16
aI1
aI0
aI2
aI3
aI3
aI3
aI1
aI6
aI2
aI2
aI0
aI0
aI3
aI7
aI0
aI5
aI8
aI4
aI1
aI0
aI0
aI2
aI5
aI2
aI37
aI6
aI0
aI0
aI3
aI25
aI2
aI2
aI4
aI7
aI0
aI0
aI0
aI1
aI10
aI2
aI0
aI3
aI0
aI0
aI8
aI7
aI1
aI7
aI6
aI5
aI2
aI0
aI0
aI8
aI0
aI6
aI5
aI3
aI4
aI0
aI8
aI3
aI1
aI6
aI0
aI0
aI10
aI2
aI7
aI10
aI4
aI2
aI0
aI0
a(lp7
I9
aI5
aI33
aI2
aI13
aI24
aI0
aI0
aI0
aI22
aI0
aI19
aI0
aI16
aI5
aI1
aI3
aI0
aI0
aI9
aI7
aI23
aI14
aI0
aI26
aI2
aI13
aI3
aI9
aI24
aI37
aI17
aI10
aI2
aI1
aI5
aI14
aI25
aI9
aI3
aI6
aI14
aI4
aI2
aI21
aI4
aI9
aI0
aI0
aI6
aI1
aI13
aI3
aI15
aI32
aI0
aI12
aI9
aI1
aI4
aI0
aI0
aI0
aI5
aI1
aI7
aI0
aI17
aI4
aI0
aI15
aI25
aI11
aI10
aI0
aI7
aI0
aI18
aI4
aI0
aI11
aI0
aI5
a(lp8
I0
aI0
aI0
aI0
aI0
aI0
aI0
aI0
aI0
aI0
aI0
aI0
aI0
aI0
aI0
aI0
aI0
aI0
aI0
aI0
aI6
aI0
aI0
aI0
aI0
aI0
aI0
aI0
aI0
aI0
aI11
aI6
aI4
aI4
aI7
aI0
aI21
aI0
aI0
aI0
aI8
aI0
aI0
aI4
aI1
aI0
aI3
aI5
aI1
aI0
aI0
aI5
aI0
aI7
aI1
aI3
aI0
aI4
aI4
aI0
aI3
aI2
aI1
aI1
aI8
aI3
aI0
aI5
aI0
aI0
aI8
aI3
aI5
aI0
aI0
aI7
aI5
aI5
aI1
aI1
aI1
aI1
aI16
aI1
aI0
aI0
aI0
aI4
aI0
aI0
aI21
aI2
aI6
aI4
aI6
aI0
aI2
aI0
aI6
aI2
aI0
aI0
aI1
aI8
aI3
aI1
aI0
aI3
aI5
aI0
aI0
aI0
aI0
aI0
aI0
aI0
aI0
aI6
aI0
aI0
aI0
aI0
aI0
aI0
aI0
aI0
aI0
aI5
aI5
aI5
aI0
aI4
aI6
aI0
aI6
aI3
aI5
aI2
aI1
aI7
aI4
aI1
aI0
aI0
aI0
aI4
aI6
aI18
aI7
aI27
aI0
aI13
aI6
aI2
aI4
aI12
aI12
aI0
aI0
aI0
aI8
aI2
aI5
aI3
aI3
aI0
aI0
aI0
aI0
aI0
aI7
aI0
aI0
aI0
aI0
aI0
aI0
aI8
aI4
aI6
aI0
aI0
aI5
aI12
aI2
aI0
aI5
aI0
aI0
aI5
aI0
aI0
aI0
aI0
aI0
aI0
aI0
aI9
aI4
aI3
aI5
aI6
aI0
aI3
aI10
aI4
aI4
aI3
aI4
aI0
aI0
aI9
aI0
aI3
aI2
aI0
aI14
aI3
aI0
aI4
aI2
aI12
aI0
aI0
aI0
aI3
aI4
aI0
aI0
aI0
aI0
aI0
aI0
aI6
aI1
aI0
aI10
aI5
aI0
aI7
aI0
aI0
aI7
aI2
aI4
aI4
aI2
aI2
aI5
aI0
aI0
aI6
aI0
aI0
aI9
aI5
aI4
aI0
aI2
aI0
aI8
aI3
aI3
aI1
aI0
aI4
aI0
aI7
aI1
aI1
aI8
aI3
aI3
aI0
aI0
aI0
aI1
aI5
aI8
aI1
aI1
aI9
aI5
aI2
aI5
aI0
aI8
aI4
aI1
aI4
aI5
aI4
aI0
aI0
aI2
aI2
aI0
aI6
aI3
aI1
aI3
aI2
aI0
aI0
aI0
aI0
aI0
aI8
aI3
aI7
aI3
aI1
aI5
aI3
aI0
aI4
aI1
aI0
aI1
aI7
aI4
aI1
aI0
aI7
aI4
aI4
aI6
aI3
aI8
aI2
aI5
aI0
aI2
aI7
aI2
aI7
aI5
aI3
aI3
aI0
aI8
aI0
aI8
aI2
aI5
aI7
aI0
aI0
aI6
aI0
aI6
aI2
aI0
aI0
aI0
aI0
aI0
aI0
aI0
aI0
aI0
aI0
aI6
aI1
aI4
aI0
aI3
aI1
aI0
aI2
aI5
aI1
aI4
aI1
aI2
aI5
aI0
aI0
aI8
aI4
aI3
aI6
aI1
aI2
aI2
aI0
aI0
aI9
aI0
aI1
aI0
aI0
aI0
aI0
aI0
aI0
aI8
aI1
aI4
aI2
aI7
aI2
aI0
aI0
aI0
aI1
aI8
aI4
aI0
aI0
aI0
aI0
aI7
aI2
aI4
aI3
aI0
aI9
aI1
aI4
aI0
aI5
aI1
aI3
aI5
aI2
aI5
aI0
aI0
aI0
aI0
aI5
aI3
aI0
aI3
aI0
aI0
aI0
aI0
a(lp9
I4
aI23
aI13
aI0
aI6
aI3
aI12
aI7
aI11
aI0
aI5
aI1
aI22
aI2
aI23
aI0
aI21
aI0
aI9
aI0
aI0
aI0
aI2
aI1
aI5
aI4
aI28
aI1
aI20
aI17
aI2
aI5
aI6
aI1
aI3
aI27
aI0
aI9
aI3
aI11
aI5
aI9
aI3
aI0
aI2
aI5
aI0
aI10
aI13
aI1
aI6
aI3
aI8
aI18
aI2
aI2
aI0
aI18
aI3
aI10
a(lp10
I0
aI0
aI0
aI0
aI0
aI0
aI0
aI0
aI0
aI0
aI0
aI7
aI4
aI9
aI3
aI3
aI3
aI14
aI9
aI7
aI5
aI1
aI0
aI0
aI6
aI3
aI6
aI0
aI9
aI4
aI12
aI1
aI4
aI4
aI4
aI4
aI6
aI4
aI1
aI4
aI0
aI3
aI1
aI1
aI7
aI4
aI1
aI0
aI6
aI0
aI2
aI3
aI0
aI4
aI0
aI0
aI3
aI7
aI6
aI0
aI0
aI0
aI0
aI0
aI10
aI3
aI5
aI0
aI3
aI2
aI8
aI0
aI8
aI3
aI6
aI0
aI6
aI1
aI0
aI0
aI0
aI0
aI0
aI7
aI0
aI2
aI1
aI4
aI0
aI3
aI2
aI1
aI0
aI2
aI0
aI3
aI0
aI4
aI2
aI8
aI2
aI4
aI3
aI4
aI5
aI6
aI0
aI6
aI2
aI6
aI2
aI2
aI0
aI4
aI0
aI1
aI1
aI0
aI0
aI0
aI0
aI0
aI0
aI0
aI1
aI0
aI4
aI6
aI3
aI2
aI3
aI6
aI7
aI3
aI8
aI0
aI0
aI0
aI4
aI12
aI0
aI3
aI0
aI2
aI0
aI0
aI6
aI1
aI7
aI8
aI3
aI1
aI3
aI7
aI7
aI2
aI0
aI0
aI7
aI5
aI0
aI5
aI0
aI0
aI13
aI1
aI0
aI0
aI1
aI0
aI0
aI7
aI3
aI0
aI4
aI0
aI0
aI0
aI0
aI0
aI0
aI0
aI0
aI3
aI5
aI2
aI3
aI0
aI4
aI5
aI1
aI0
aI0
aI5
aI3
aI5
aI0
aI3
aI7
aI2
aI2
aI1
aI8
aI2
aI4
aI7
aI2
aI5
aI6
aI5
aI4
aI3
aI4
aI1
aI0
aI4
aI3
aI3
aI0
aI1
aI0
aI1
aI0
aI0
aI2
aI0
aI0
aI0
aI0
aI0
aI0
aI0
aI4
aI0
aI0
aI0
aI7
aI3
aI0
aI0
aI1
aI3
aI0
aI0
aI4
aI0
aI3
aI0
aI0
aI5
aI4
aI3
aI0
aI0
aI1
aI2
aI3
aI0
aI0
aI0
aI0
aI0
aI1
aI6
aI0
aI5
aI7
aI6
aI5
aI5
aI6
aI1
aI2
aI0
aI0
aI4
aI3
aI0
aI0
aI0
aI7
aI4
aI1
aI4
aI6
aI0
aI4
aI4
aI2
aI2
aI5
aI4
aI0
aI0
aI7
aI2
aI4
aI3
aI3
aI5
atp11
.